target datalayout = "e-m:e-p270:32:32-p271:32:32-p272:64:64-i64:64-i128:128-f80:128-n8:16:32:64-S128"
target triple = "x86_64-pc-linux-gnu"

; Function Attrs: mustprogress nounwind uwtable
define dso_local noundef i32 @_ZN4Luau15BytecodeBuilder17decomposeImportIdEjRiS1_S1_(i32 noundef %0, ptr noundef nonnull align 4 dereferenceable(4) %1, ptr noundef nonnull align 4 dereferenceable(4) %2, ptr noundef nonnull align 4 dereferenceable(4) %3) #0 align 2 {
  %5 = alloca i32, align 4
  %6 = alloca ptr, align 8
  %7 = alloca ptr, align 8
  %8 = alloca ptr, align 8
  %9 = alloca i32, align 4
  store i32 %0, ptr %5, align 4, !tbaa !28
  store ptr %1, ptr %6, align 8, !tbaa !162
  store ptr %2, ptr %7, align 8, !tbaa !162
  store ptr %3, ptr %8, align 8, !tbaa !162
  call void @llvm.lifetime.start.p0(i64 4, ptr %9) #19
  %10 = load i32, ptr %5, align 4, !tbaa !28
  %11 = lshr i32 %10, 30
  store i32 %11, ptr %9, align 4, !tbaa !28
  %12 = load i32, ptr %9, align 4, !tbaa !28
  %13 = icmp sgt i32 %12, 0
  br i1 %13, label %14, label %18

14:                                               ; preds = %4
  %15 = load i32, ptr %5, align 4, !tbaa !28
  %16 = lshr i32 %15, 20
  %17 = and i32 %16, 1023
  br label %19

18:                                               ; preds = %4
  br label %19

19:                                               ; preds = %18, %14
  %20 = phi i32 [ %17, %14 ], [ -1, %18 ]
  %21 = load ptr, ptr %6, align 8, !tbaa !162
  store i32 %20, ptr %21, align 4, !tbaa !28
  %22 = load i32, ptr %9, align 4, !tbaa !28
  %23 = icmp sgt i32 %22, 1
  br i1 %23, label %24, label %28

24:                                               ; preds = %19
  %25 = load i32, ptr %5, align 4, !tbaa !28
  %26 = lshr i32 %25, 10
  %27 = and i32 %26, 1023
  br label %29

28:                                               ; preds = %19
  br label %29

29:                                               ; preds = %28, %24
  %30 = phi i32 [ %27, %24 ], [ -1, %28 ]
  %31 = load ptr, ptr %7, align 8, !tbaa !162
  store i32 %30, ptr %31, align 4, !tbaa !28
  %32 = load i32, ptr %9, align 4, !tbaa !28
  %33 = icmp sgt i32 %32, 2
  br i1 %33, label %34, label %37

34:                                               ; preds = %29
  %35 = load i32, ptr %5, align 4, !tbaa !28
  %36 = and i32 %35, 1023
  br label %38

37:                                               ; preds = %29
  br label %38

38:                                               ; preds = %37, %34
  %39 = phi i32 [ %36, %34 ], [ -1, %37 ]
  %40 = load ptr, ptr %8, align 8, !tbaa !162
  store i32 %39, ptr %40, align 4, !tbaa !28
  %41 = load i32, ptr %9, align 4, !tbaa !28
  call void @llvm.lifetime.end.p0(i64 4, ptr %9) #19
  ret i32 %41
}