; Function Attrs: mustprogress nofree norecurse nosync nounwind willreturn memory(argmem: write) uwtable
define dso_local noundef range(i32 0, 4) i32 @_ZN4Luau15BytecodeBuilder17decomposeImportIdEjRiS1_S1_(i32 noundef %0, ptr noundef nonnull writeonly align 4 captures(none) dereferenceable(4) initializes((0, 4)) %1, ptr noundef nonnull writeonly align 4 captures(none) dereferenceable(4) initializes((0, 4)) %2, ptr noundef nonnull writeonly align 4 captures(none) dereferenceable(4) initializes((0, 4)) %3) local_unnamed_addr #11 align 2 {
  %5 = lshr i32 %0, 30
  %.not = icmp ult i32 %0, 1073741824
  %6 = lshr i32 %0, 20
  %7 = and i32 %6, 1023
  %8 = select i1 %.not, i32 -1, i32 %7
  store i32 %8, ptr %1, align 4, !tbaa !19
  %9 = lshr i32 %0, 10
  %10 = and i32 %9, 1023
  %.inv = icmp sgt i32 %0, -1
  %11 = select i1 %.inv, i32 -1, i32 %10
  store i32 %11, ptr %2, align 4, !tbaa !19
  %12 = icmp eq i32 %5, 3
  %13 = and i32 %0, 1023
  %14 = select i1 %12, i32 %13, i32 -1
  store i32 %14, ptr %3, align 4, !tbaa !19
  ret i32 %5
}